target datalayout = "e-m:e-p270:32:32-p271:32:32-p272:64:64-i64:64-i128:128-f80:128-n8:16:32:64-S128"
target triple = "x86_64-pc-linux-gnu"

%struct.stat = type { i64, i64, i64, i32, i32, i32, i32, i64, i64, i64, i64, %struct.timespec, %struct.timespec, %struct.timespec, [3 x i64] }
%struct.timespec = type { i64, i64 }
%struct.stat_data = type { %struct.cache_time, %struct.cache_time, i32, i32, i32, i32, i32 }
%struct.cache_time = type { i32, i32 }

; Function Attrs: nounwind uwtable
define internal void @set_times(ptr noundef %0, ptr noundef %1) #0 {
  %3 = alloca ptr, align 8
  %4 = alloca ptr, align 8
  store ptr %0, ptr %3, align 8, !tbaa !9
  store ptr %1, ptr %4, align 8, !tbaa !4
  %5 = load ptr, ptr %4, align 8, !tbaa !4
  %6 = getelementptr inbounds nuw %struct.stat_data, ptr %5, i32 0, i32 0
  %7 = getelementptr inbounds nuw %struct.cache_time, ptr %6, i32 0, i32 0
  %8 = load i32, ptr %7, align 4, !tbaa !16
  %9 = zext i32 %8 to i64
  %10 = load ptr, ptr %3, align 8, !tbaa !9
  %11 = getelementptr inbounds nuw %struct.stat, ptr %10, i32 0, i32 13
  %12 = getelementptr inbounds nuw %struct.timespec, ptr %11, i32 0, i32 0
  store i64 %9, ptr %12, align 8, !tbaa !11
  %13 = load ptr, ptr %4, align 8, !tbaa !4
  %14 = getelementptr inbounds nuw %struct.stat_data, ptr %13, i32 0, i32 1
  %15 = getelementptr inbounds nuw %struct.cache_time, ptr %14, i32 0, i32 0
  %16 = load i32, ptr %15, align 4, !tbaa !20
  %17 = zext i32 %16 to i64
  %18 = load ptr, ptr %3, align 8, !tbaa !9
  %19 = getelementptr inbounds nuw %struct.stat, ptr %18, i32 0, i32 12
  %20 = getelementptr inbounds nuw %struct.timespec, ptr %19, i32 0, i32 0
  store i64 %17, ptr %20, align 8, !tbaa !19
  %21 = load ptr, ptr %4, align 8, !tbaa !4
  %22 = getelementptr inbounds nuw %struct.stat_data, ptr %21, i32 0, i32 0
  %23 = getelementptr inbounds nuw %struct.cache_time, ptr %22, i32 0, i32 1
  %24 = load i32, ptr %23, align 4, !tbaa !22
  %25 = zext i32 %24 to i64
  %26 = load ptr, ptr %3, align 8, !tbaa !9
  %27 = getelementptr inbounds nuw %struct.stat, ptr %26, i32 0, i32 13
  %28 = getelementptr inbounds nuw %struct.timespec, ptr %27, i32 0, i32 1
  store i64 %25, ptr %28, align 8, !tbaa !21
  %29 = load ptr, ptr %4, align 8, !tbaa !4
  %30 = getelementptr inbounds nuw %struct.stat_data, ptr %29, i32 0, i32 1
  %31 = getelementptr inbounds nuw %struct.cache_time, ptr %30, i32 0, i32 1
  %32 = load i32, ptr %31, align 4, !tbaa !24
  %33 = zext i32 %32 to i64
  %34 = load ptr, ptr %3, align 8, !tbaa !9
  %35 = getelementptr inbounds nuw %struct.stat, ptr %34, i32 0, i32 12
  %36 = getelementptr inbounds nuw %struct.timespec, ptr %35, i32 0, i32 1
  store i64 %33, ptr %36, align 8, !tbaa !23
  ret void
}

; Function Attrs: nounwind uwtable
define dso_local void @fake_lstat_data(ptr noundef %0, ptr noundef %1) #0 {
  %3 = alloca ptr, align 8
  %4 = alloca ptr, align 8
  store ptr %0, ptr %3, align 8, !tbaa !4
  store ptr %1, ptr %4, align 8, !tbaa !9
  %5 = load ptr, ptr %4, align 8, !tbaa !9
  %6 = load ptr, ptr %3, align 8, !tbaa !4
  call void @set_times(ptr noundef %5, ptr noundef %6)
  %7 = load ptr, ptr %3, align 8, !tbaa !4
  %8 = getelementptr inbounds nuw %struct.stat_data, ptr %7, i32 0, i32 2
  %9 = load i32, ptr %8, align 4, !tbaa !26
  %10 = zext i32 %9 to i64
  %11 = load ptr, ptr %4, align 8, !tbaa !9
  %12 = getelementptr inbounds nuw %struct.stat, ptr %11, i32 0, i32 0
  store i64 %10, ptr %12, align 8, !tbaa !25
  %13 = load ptr, ptr %3, align 8, !tbaa !4
  %14 = getelementptr inbounds nuw %struct.stat_data, ptr %13, i32 0, i32 3
  %15 = load i32, ptr %14, align 4, !tbaa !28
  %16 = zext i32 %15 to i64
  %17 = load ptr, ptr %4, align 8, !tbaa !9
  %18 = getelementptr inbounds nuw %struct.stat, ptr %17, i32 0, i32 1
  store i64 %16, ptr %18, align 8, !tbaa !27
  %19 = load ptr, ptr %3, align 8, !tbaa !4
  %20 = getelementptr inbounds nuw %struct.stat_data, ptr %19, i32 0, i32 4
  %21 = load i32, ptr %20, align 4, !tbaa !30
  %22 = load ptr, ptr %4, align 8, !tbaa !9
  %23 = getelementptr inbounds nuw %struct.stat, ptr %22, i32 0, i32 4
  store i32 %21, ptr %23, align 4, !tbaa !29
  %24 = load ptr, ptr %3, align 8, !tbaa !4
  %25 = getelementptr inbounds nuw %struct.stat_data, ptr %24, i32 0, i32 5
  %26 = load i32, ptr %25, align 4, !tbaa !32
  %27 = load ptr, ptr %4, align 8, !tbaa !9
  %28 = getelementptr inbounds nuw %struct.stat, ptr %27, i32 0, i32 5
  store i32 %26, ptr %28, align 8, !tbaa !31
  %29 = load ptr, ptr %3, align 8, !tbaa !4
  %30 = getelementptr inbounds nuw %struct.stat_data, ptr %29, i32 0, i32 6
  %31 = load i32, ptr %30, align 4, !tbaa !34
  %32 = zext i32 %31 to i64
  %33 = load ptr, ptr %4, align 8, !tbaa !9
  %34 = getelementptr inbounds nuw %struct.stat, ptr %33, i32 0, i32 8
  store i64 %32, ptr %34, align 8, !tbaa !33
  ret void
}