; Function Attrs: mustprogress nofree norecurse nosync nounwind willreturn memory(argmem: readwrite) uwtable
define dso_local void @fake_lstat_data(ptr noundef readonly captures(none) %0, ptr noundef writeonly captures(none) initializes((0, 16), (28, 36), (48, 56), (88, 120)) %1) local_unnamed_addr #0 {
  %3 = load i32, ptr %0, align 4, !tbaa !11
  %4 = zext i32 %3 to i64
  %5 = getelementptr inbounds nuw i8, ptr %1, i64 104
  store i64 %4, ptr %5, align 8, !tbaa !4
  %6 = getelementptr inbounds nuw i8, ptr %0, i64 8
  %7 = load i32, ptr %6, align 4, !tbaa !15
  %8 = zext i32 %7 to i64
  %9 = getelementptr inbounds nuw i8, ptr %1, i64 88
  store i64 %8, ptr %9, align 8, !tbaa !14
  %10 = getelementptr inbounds nuw i8, ptr %0, i64 4
  %11 = load i32, ptr %10, align 4, !tbaa !17
  %12 = zext i32 %11 to i64
  %13 = getelementptr inbounds nuw i8, ptr %1, i64 112
  store i64 %12, ptr %13, align 8, !tbaa !16
  %14 = getelementptr inbounds nuw i8, ptr %0, i64 12
  %15 = load i32, ptr %14, align 4, !tbaa !19
  %16 = zext i32 %15 to i64
  %17 = getelementptr inbounds nuw i8, ptr %1, i64 96
  store i64 %16, ptr %17, align 8, !tbaa !18
  %18 = getelementptr inbounds nuw i8, ptr %0, i64 16
  %19 = load i32, ptr %18, align 4, !tbaa !21
  %20 = zext i32 %19 to i64
  store i64 %20, ptr %1, align 8, !tbaa !20
  %21 = getelementptr inbounds nuw i8, ptr %0, i64 20
  %22 = load i32, ptr %21, align 4, !tbaa !23
  %23 = zext i32 %22 to i64
  %24 = getelementptr inbounds nuw i8, ptr %1, i64 8
  store i64 %23, ptr %24, align 8, !tbaa !22
  %25 = getelementptr inbounds nuw i8, ptr %0, i64 24
  %26 = load i32, ptr %25, align 4, !tbaa !25
  %27 = getelementptr inbounds nuw i8, ptr %1, i64 28
  store i32 %26, ptr %27, align 4, !tbaa !24
  %28 = getelementptr inbounds nuw i8, ptr %0, i64 28
  %29 = load i32, ptr %28, align 4, !tbaa !27
  %30 = getelementptr inbounds nuw i8, ptr %1, i64 32
  store i32 %29, ptr %30, align 8, !tbaa !26
  %31 = getelementptr inbounds nuw i8, ptr %0, i64 32
  %32 = load i32, ptr %31, align 4, !tbaa !29
  %33 = zext i32 %32 to i64
  %34 = getelementptr inbounds nuw i8, ptr %1, i64 48
  store i64 %33, ptr %34, align 8, !tbaa !28
  ret void
}